; Function Attrs: mustprogress uwtable
define internal noundef zeroext i1 @"_ZNSt17_Function_handlerIFviiiEZNK8LightGBM4Tree20AddPredictionToScoreEPKNS1_7DatasetEPKiiPdE3$_4E10_M_managerERSt9_Any_dataRKSB_St18_Manager_operation"(ptr noundef nonnull align 8 captures(none) dereferenceable(16) %0, ptr noundef nonnull readonly align 8 captures(none) dereferenceable(16) %1, i32 noundef %2) #1 align 2 {
  switch i32 %2, label %"_ZNSt14_Function_base13_Base_managerIZNK8LightGBM4Tree20AddPredictionToScoreEPKNS1_7DatasetEPKiiPdE3$_4E10_M_managerERSt9_Any_dataRKSB_St18_Manager_operation.exit" [
    i32 0, label %4
    i32 1, label %5
    i32 3, label %8
    i32 2, label %6
  ]

4:                                                ; preds = %3
  store ptr @"_ZTIZNK8LightGBM4Tree20AddPredictionToScoreEPKNS_7DatasetEPKiiPdE3$_4", ptr %0, align 8, !tbaa !236
  br label %"_ZNSt14_Function_base13_Base_managerIZNK8LightGBM4Tree20AddPredictionToScoreEPKNS1_7DatasetEPKiiPdE3$_4E10_M_managerERSt9_Any_dataRKSB_St18_Manager_operation.exit"

5:                                                ; preds = %3
  %.val = load ptr, ptr %1, align 8, !tbaa !143
  store ptr %.val, ptr %0, align 8, !tbaa !143
  br label %"_ZNSt14_Function_base13_Base_managerIZNK8LightGBM4Tree20AddPredictionToScoreEPKNS1_7DatasetEPKiiPdE3$_4E10_M_managerERSt9_Any_dataRKSB_St18_Manager_operation.exit"

6:                                                ; preds = %3
  %.val6 = load ptr, ptr %1, align 8
  %7 = tail call noalias noundef nonnull dereferenceable(48) ptr @_Znwm(i64 noundef 48) #44
  tail call void @llvm.memcpy.p0.p0.i64(ptr noundef nonnull align 16 dereferenceable(48) %7, ptr noundef nonnull readonly align 8 dereferenceable(48) %.val6, i64 48, i1 false), !tbaa.struct !359
  store ptr %7, ptr %0, align 8, !tbaa !143
  br label %"_ZNSt14_Function_base13_Base_managerIZNK8LightGBM4Tree20AddPredictionToScoreEPKNS1_7DatasetEPKiiPdE3$_4E10_M_managerERSt9_Any_dataRKSB_St18_Manager_operation.exit"

8:                                                ; preds = %3
  %.val7.i = load ptr, ptr %0, align 8, !tbaa !143
  %9 = icmp eq ptr %.val7.i, null
  br i1 %9, label %"_ZNSt14_Function_base13_Base_managerIZNK8LightGBM4Tree20AddPredictionToScoreEPKNS1_7DatasetEPKiiPdE3$_4E10_M_managerERSt9_Any_dataRKSB_St18_Manager_operation.exit", label %10

10:                                               ; preds = %8
  tail call void @_ZdlPv(ptr noundef nonnull %.val7.i) #42
  br label %"_ZNSt14_Function_base13_Base_managerIZNK8LightGBM4Tree20AddPredictionToScoreEPKNS1_7DatasetEPKiiPdE3$_4E10_M_managerERSt9_Any_dataRKSB_St18_Manager_operation.exit"

"_ZNSt14_Function_base13_Base_managerIZNK8LightGBM4Tree20AddPredictionToScoreEPKNS1_7DatasetEPKiiPdE3$_4E10_M_managerERSt9_Any_dataRKSB_St18_Manager_operation.exit": ; preds = %3, %10, %8, %6, %5, %4
  ret i1 false
}